target datalayout = "e-m:e-p270:32:32-p271:32:32-p272:64:64-i64:64-i128:128-f80:128-n8:16:32:64-S128"
target triple = "x86_64-pc-linux-gnu"

%struct._object = type { %union.anon, ptr }
%union.anon = type { i64 }
%struct.anon = type { i32, i32 }
%struct.lru_cache_object = type { %struct.lru_list_elem, ptr, i32, ptr, i64, ptr, i64, i64, ptr, ptr, ptr, ptr, ptr }
%struct.lru_list_elem = type { %struct._object, ptr, ptr, i64, ptr, ptr }

; Function Attrs: alwaysinline nounwind uwtable
define internal i32 @_Py_IsImmortal(ptr noundef %0) #4 {
  %2 = alloca ptr, align 8
  store ptr %0, ptr %2, align 8, !tbaa !4
  %3 = load ptr, ptr %2, align 8, !tbaa !4
  %4 = getelementptr inbounds nuw %struct._object, ptr %3, i32 0, i32 0
  %5 = getelementptr inbounds nuw %struct.anon, ptr %4, i32 0, i32 0
  %6 = load i32, ptr %5, align 8, !tbaa !32
  %7 = icmp slt i32 %6, 0
  %8 = zext i1 %7 to i32
  ret i32 %8
}

; Function Attrs: nounwind uwtable
define internal void @lru_cache_clear_list(ptr noundef %0) #0 {
  %2 = alloca ptr, align 8
  %3 = alloca ptr, align 8
  %4 = alloca ptr, align 8
  %5 = alloca ptr, align 8
  store ptr %0, ptr %2, align 8, !tbaa !163
  br label %6

6:                                                ; preds = %20, %1
  %7 = load ptr, ptr %2, align 8, !tbaa !163
  %8 = icmp ne ptr %7, null
  br i1 %8, label %9, label %21

9:                                                ; preds = %6
  call void @llvm.lifetime.start.p0(i64 8, ptr %3) #8
  %10 = load ptr, ptr %2, align 8, !tbaa !163
  %11 = getelementptr inbounds nuw %struct.lru_list_elem, ptr %10, i32 0, i32 2
  %12 = load ptr, ptr %11, align 8, !tbaa !164
  store ptr %12, ptr %3, align 8, !tbaa !163
  br label %13

13:                                               ; preds = %9
  call void @llvm.lifetime.start.p0(i64 8, ptr %4) #8
  store ptr %2, ptr %4, align 8, !tbaa !180
  call void @llvm.lifetime.start.p0(i64 8, ptr %5) #8
  %14 = load ptr, ptr %4, align 8, !tbaa !180
  %15 = load ptr, ptr %14, align 8, !tbaa !163
  store ptr %15, ptr %5, align 8, !tbaa !163
  %16 = load ptr, ptr %3, align 8, !tbaa !163
  %17 = load ptr, ptr %4, align 8, !tbaa !180
  store ptr %16, ptr %17, align 8, !tbaa !163
  %18 = load ptr, ptr %5, align 8, !tbaa !163
  call void @Py_DECREF(ptr noundef %18)
  call void @llvm.lifetime.end.p0(i64 8, ptr %5) #8
  call void @llvm.lifetime.end.p0(i64 8, ptr %4) #8
  br label %19

19:                                               ; preds = %13
  br label %20

20:                                               ; preds = %19
  call void @llvm.lifetime.end.p0(i64 8, ptr %3) #8
  br label %6, !llvm.loop !182

21:                                               ; preds = %6
  ret void
}

; Function Attrs: alwaysinline nounwind uwtable
define internal void @Py_DECREF(ptr noundef %0) #4 {
  %2 = alloca ptr, align 8
  store ptr %0, ptr %2, align 8, !tbaa !4
  %3 = load ptr, ptr %2, align 8, !tbaa !4
  %4 = call i32 @_Py_IsImmortal(ptr noundef %3)
  %5 = icmp ne i32 %4, 0
  br i1 %5, label %6, label %7

6:                                                ; preds = %1
  br label %16

7:                                                ; preds = %1
  %8 = load ptr, ptr %2, align 8, !tbaa !4
  %9 = getelementptr inbounds nuw %struct._object, ptr %8, i32 0, i32 0
  %10 = getelementptr inbounds nuw %struct.anon, ptr %9, i32 0, i32 0
  %11 = load i32, ptr %10, align 8, !tbaa !32
  %12 = add i32 %11, -1
  store i32 %12, ptr %10, align 8, !tbaa !32
  %13 = icmp eq i32 %12, 0
  br i1 %13, label %14, label %16

14:                                               ; preds = %7
  %15 = load ptr, ptr %2, align 8, !tbaa !4
  call void @_Py_Dealloc(ptr noundef %15)
  br label %16

16:                                               ; preds = %6, %14, %7
  ret void
}

; Function Attrs: nounwind uwtable
define internal ptr @lru_cache_unlink_list(ptr noundef %0) #0 {
  %2 = alloca ptr, align 8
  %3 = alloca ptr, align 8
  %4 = alloca ptr, align 8
  %5 = alloca ptr, align 8
  %6 = alloca i32, align 4
  store ptr %0, ptr %3, align 8, !tbaa !155
  call void @llvm.lifetime.start.p0(i64 8, ptr %4) #8
  %7 = load ptr, ptr %3, align 8, !tbaa !155
  %8 = getelementptr inbounds nuw %struct.lru_cache_object, ptr %7, i32 0, i32 0
  store ptr %8, ptr %4, align 8, !tbaa !163
  call void @llvm.lifetime.start.p0(i64 8, ptr %5) #8
  %9 = load ptr, ptr %4, align 8, !tbaa !163
  %10 = getelementptr inbounds nuw %struct.lru_list_elem, ptr %9, i32 0, i32 2
  %11 = load ptr, ptr %10, align 8, !tbaa !164
  store ptr %11, ptr %5, align 8, !tbaa !163
  %12 = load ptr, ptr %5, align 8, !tbaa !163
  %13 = load ptr, ptr %4, align 8, !tbaa !163
  %14 = icmp eq ptr %12, %13
  br i1 %14, label %15, label %16

15:                                               ; preds = %1
  store ptr null, ptr %2, align 8
  store i32 1, ptr %6, align 4
  br label %27

16:                                               ; preds = %1
  %17 = load ptr, ptr %4, align 8, !tbaa !163
  %18 = getelementptr inbounds nuw %struct.lru_list_elem, ptr %17, i32 0, i32 1
  %19 = load ptr, ptr %18, align 8, !tbaa !179
  %20 = getelementptr inbounds nuw %struct.lru_list_elem, ptr %19, i32 0, i32 2
  store ptr null, ptr %20, align 8, !tbaa !164
  %21 = load ptr, ptr %4, align 8, !tbaa !163
  %22 = load ptr, ptr %4, align 8, !tbaa !163
  %23 = getelementptr inbounds nuw %struct.lru_list_elem, ptr %22, i32 0, i32 1
  store ptr %21, ptr %23, align 8, !tbaa !179
  %24 = load ptr, ptr %4, align 8, !tbaa !163
  %25 = getelementptr inbounds nuw %struct.lru_list_elem, ptr %24, i32 0, i32 2
  store ptr %21, ptr %25, align 8, !tbaa !164
  %26 = load ptr, ptr %5, align 8, !tbaa !163
  store ptr %26, ptr %2, align 8
  store i32 1, ptr %6, align 4
  br label %27

27:                                               ; preds = %16, %15
  call void @llvm.lifetime.end.p0(i64 8, ptr %5) #8
  call void @llvm.lifetime.end.p0(i64 8, ptr %4) #8
  %28 = load ptr, ptr %2, align 8
  ret ptr %28
}

; Function Attrs: nounwind uwtable
define internal i32 @lru_cache_tp_clear(ptr noundef %0) #0 {
  %2 = alloca ptr, align 8
  %3 = alloca ptr, align 8
  %4 = alloca ptr, align 8
  %5 = alloca ptr, align 8
  %6 = alloca ptr, align 8
  %7 = alloca ptr, align 8
  %8 = alloca ptr, align 8
  %9 = alloca ptr, align 8
  %10 = alloca ptr, align 8
  %11 = alloca ptr, align 8
  %12 = alloca ptr, align 8
  %13 = alloca ptr, align 8
  %14 = alloca ptr, align 8
  %15 = alloca ptr, align 8
  store ptr %0, ptr %2, align 8, !tbaa !155
  call void @llvm.lifetime.start.p0(i64 8, ptr %3) #8
  %16 = load ptr, ptr %2, align 8, !tbaa !155
  %17 = call ptr @lru_cache_unlink_list(ptr noundef %16)
  store ptr %17, ptr %3, align 8, !tbaa !163
  br label %18

18:                                               ; preds = %1
  call void @llvm.lifetime.start.p0(i64 8, ptr %4) #8
  %19 = load ptr, ptr %2, align 8, !tbaa !155
  %20 = getelementptr inbounds nuw %struct.lru_cache_object, ptr %19, i32 0, i32 3
  store ptr %20, ptr %4, align 8, !tbaa !22
  call void @llvm.lifetime.start.p0(i64 8, ptr %5) #8
  %21 = load ptr, ptr %4, align 8, !tbaa !22
  %22 = load ptr, ptr %21, align 8, !tbaa !4
  store ptr %22, ptr %5, align 8, !tbaa !4
  %23 = load ptr, ptr %5, align 8, !tbaa !4
  %24 = icmp ne ptr %23, null
  br i1 %24, label %25, label %28

25:                                               ; preds = %18
  %26 = load ptr, ptr %4, align 8, !tbaa !22
  store ptr null, ptr %26, align 8, !tbaa !4
  %27 = load ptr, ptr %5, align 8, !tbaa !4
  call void @Py_DECREF(ptr noundef %27)
  br label %28

28:                                               ; preds = %25, %18
  call void @llvm.lifetime.end.p0(i64 8, ptr %5) #8
  call void @llvm.lifetime.end.p0(i64 8, ptr %4) #8
  br label %29

29:                                               ; preds = %28
  br label %30

30:                                               ; preds = %29
  br label %31

31:                                               ; preds = %30
  call void @llvm.lifetime.start.p0(i64 8, ptr %6) #8
  %32 = load ptr, ptr %2, align 8, !tbaa !155
  %33 = getelementptr inbounds nuw %struct.lru_cache_object, ptr %32, i32 0, i32 5
  store ptr %33, ptr %6, align 8, !tbaa !22
  call void @llvm.lifetime.start.p0(i64 8, ptr %7) #8
  %34 = load ptr, ptr %6, align 8, !tbaa !22
  %35 = load ptr, ptr %34, align 8, !tbaa !4
  store ptr %35, ptr %7, align 8, !tbaa !4
  %36 = load ptr, ptr %7, align 8, !tbaa !4
  %37 = icmp ne ptr %36, null
  br i1 %37, label %38, label %41

38:                                               ; preds = %31
  %39 = load ptr, ptr %6, align 8, !tbaa !22
  store ptr null, ptr %39, align 8, !tbaa !4
  %40 = load ptr, ptr %7, align 8, !tbaa !4
  call void @Py_DECREF(ptr noundef %40)
  br label %41

41:                                               ; preds = %38, %31
  call void @llvm.lifetime.end.p0(i64 8, ptr %7) #8
  call void @llvm.lifetime.end.p0(i64 8, ptr %6) #8
  br label %42

42:                                               ; preds = %41
  br label %43

43:                                               ; preds = %42
  br label %44

44:                                               ; preds = %43
  call void @llvm.lifetime.start.p0(i64 8, ptr %8) #8
  %45 = load ptr, ptr %2, align 8, !tbaa !155
  %46 = getelementptr inbounds nuw %struct.lru_cache_object, ptr %45, i32 0, i32 8
  store ptr %46, ptr %8, align 8, !tbaa !22
  call void @llvm.lifetime.start.p0(i64 8, ptr %9) #8
  %47 = load ptr, ptr %8, align 8, !tbaa !22
  %48 = load ptr, ptr %47, align 8, !tbaa !4
  store ptr %48, ptr %9, align 8, !tbaa !4
  %49 = load ptr, ptr %9, align 8, !tbaa !4
  %50 = icmp ne ptr %49, null
  br i1 %50, label %51, label %54

51:                                               ; preds = %44
  %52 = load ptr, ptr %8, align 8, !tbaa !22
  store ptr null, ptr %52, align 8, !tbaa !4
  %53 = load ptr, ptr %9, align 8, !tbaa !4
  call void @Py_DECREF(ptr noundef %53)
  br label %54

54:                                               ; preds = %51, %44
  call void @llvm.lifetime.end.p0(i64 8, ptr %9) #8
  call void @llvm.lifetime.end.p0(i64 8, ptr %8) #8
  br label %55

55:                                               ; preds = %54
  br label %56

56:                                               ; preds = %55
  br label %57

57:                                               ; preds = %56
  call void @llvm.lifetime.start.p0(i64 8, ptr %10) #8
  %58 = load ptr, ptr %2, align 8, !tbaa !155
  %59 = getelementptr inbounds nuw %struct.lru_cache_object, ptr %58, i32 0, i32 9
  store ptr %59, ptr %10, align 8, !tbaa !24
  call void @llvm.lifetime.start.p0(i64 8, ptr %11) #8
  %60 = load ptr, ptr %10, align 8, !tbaa !24
  %61 = load ptr, ptr %60, align 8, !tbaa !26
  store ptr %61, ptr %11, align 8, !tbaa !26
  %62 = load ptr, ptr %11, align 8, !tbaa !26
  %63 = icmp ne ptr %62, null
  br i1 %63, label %64, label %67

64:                                               ; preds = %57
  %65 = load ptr, ptr %10, align 8, !tbaa !24
  store ptr null, ptr %65, align 8, !tbaa !26
  %66 = load ptr, ptr %11, align 8, !tbaa !26
  call void @Py_DECREF(ptr noundef %66)
  br label %67

67:                                               ; preds = %64, %57
  call void @llvm.lifetime.end.p0(i64 8, ptr %11) #8
  call void @llvm.lifetime.end.p0(i64 8, ptr %10) #8
  br label %68

68:                                               ; preds = %67
  br label %69

69:                                               ; preds = %68
  br label %70

70:                                               ; preds = %69
  call void @llvm.lifetime.start.p0(i64 8, ptr %12) #8
  %71 = load ptr, ptr %2, align 8, !tbaa !155
  %72 = getelementptr inbounds nuw %struct.lru_cache_object, ptr %71, i32 0, i32 10
  store ptr %72, ptr %12, align 8, !tbaa !22
  call void @llvm.lifetime.start.p0(i64 8, ptr %13) #8
  %73 = load ptr, ptr %12, align 8, !tbaa !22
  %74 = load ptr, ptr %73, align 8, !tbaa !4
  store ptr %74, ptr %13, align 8, !tbaa !4
  %75 = load ptr, ptr %13, align 8, !tbaa !4
  %76 = icmp ne ptr %75, null
  br i1 %76, label %77, label %80

77:                                               ; preds = %70
  %78 = load ptr, ptr %12, align 8, !tbaa !22
  store ptr null, ptr %78, align 8, !tbaa !4
  %79 = load ptr, ptr %13, align 8, !tbaa !4
  call void @Py_DECREF(ptr noundef %79)
  br label %80

80:                                               ; preds = %77, %70
  call void @llvm.lifetime.end.p0(i64 8, ptr %13) #8
  call void @llvm.lifetime.end.p0(i64 8, ptr %12) #8
  br label %81

81:                                               ; preds = %80
  br label %82

82:                                               ; preds = %81
  br label %83

83:                                               ; preds = %82
  call void @llvm.lifetime.start.p0(i64 8, ptr %14) #8
  %84 = load ptr, ptr %2, align 8, !tbaa !155
  %85 = getelementptr inbounds nuw %struct.lru_cache_object, ptr %84, i32 0, i32 11
  store ptr %85, ptr %14, align 8, !tbaa !22
  call void @llvm.lifetime.start.p0(i64 8, ptr %15) #8
  %86 = load ptr, ptr %14, align 8, !tbaa !22
  %87 = load ptr, ptr %86, align 8, !tbaa !4
  store ptr %87, ptr %15, align 8, !tbaa !4
  %88 = load ptr, ptr %15, align 8, !tbaa !4
  %89 = icmp ne ptr %88, null
  br i1 %89, label %90, label %93

90:                                               ; preds = %83
  %91 = load ptr, ptr %14, align 8, !tbaa !22
  store ptr null, ptr %91, align 8, !tbaa !4
  %92 = load ptr, ptr %15, align 8, !tbaa !4
  call void @Py_DECREF(ptr noundef %92)
  br label %93

93:                                               ; preds = %90, %83
  call void @llvm.lifetime.end.p0(i64 8, ptr %15) #8
  call void @llvm.lifetime.end.p0(i64 8, ptr %14) #8
  br label %94

94:                                               ; preds = %93
  br label %95

95:                                               ; preds = %94
  %96 = load ptr, ptr %3, align 8, !tbaa !163
  call void @lru_cache_clear_list(ptr noundef %96)
  call void @llvm.lifetime.end.p0(i64 8, ptr %3) #8
  ret i32 0
}