; Function Attrs: nounwind uwtable
define internal noundef i32 @lru_cache_tp_clear(ptr noundef %0) #0 {
  %2 = getelementptr inbounds nuw i8, ptr %0, i64 24
  %3 = load ptr, ptr %2, align 8, !tbaa !152
  %4 = icmp eq ptr %3, %0
  br i1 %4, label %lru_cache_unlink_list.exit, label %5

5:                                                ; preds = %1
  %6 = getelementptr inbounds nuw i8, ptr %0, i64 16
  %7 = load ptr, ptr %6, align 8, !tbaa !162
  %8 = getelementptr inbounds nuw i8, ptr %7, i64 24
  store ptr null, ptr %8, align 8, !tbaa !152
  store ptr %0, ptr %6, align 8, !tbaa !162
  store ptr %0, ptr %2, align 8, !tbaa !152
  br label %lru_cache_unlink_list.exit

lru_cache_unlink_list.exit:                       ; preds = %1, %5
  %.0.i = phi ptr [ %3, %5 ], [ null, %1 ]
  %9 = getelementptr inbounds nuw i8, ptr %0, i64 72
  %10 = load ptr, ptr %9, align 8, !tbaa !20
  %.not = icmp eq ptr %10, null
  br i1 %.not, label %Py_DECREF.exit51, label %11

11:                                               ; preds = %lru_cache_unlink_list.exit
  store ptr null, ptr %9, align 8, !tbaa !20
  %12 = load i32, ptr %10, align 8, !tbaa !21
  %.not.i50 = icmp sgt i32 %12, -1
  br i1 %.not.i50, label %13, label %Py_DECREF.exit51

13:                                               ; preds = %11
  %14 = add nsw i32 %12, -1
  store i32 %14, ptr %10, align 8, !tbaa !21
  %15 = icmp eq i32 %14, 0
  br i1 %15, label %16, label %Py_DECREF.exit51

16:                                               ; preds = %13
  tail call void @_Py_Dealloc(ptr noundef nonnull %10) #9
  br label %Py_DECREF.exit51

Py_DECREF.exit51:                                 ; preds = %16, %13, %11, %lru_cache_unlink_list.exit
  %17 = getelementptr inbounds nuw i8, ptr %0, i64 88
  %18 = load ptr, ptr %17, align 8, !tbaa !20
  %.not37 = icmp eq ptr %18, null
  br i1 %.not37, label %Py_DECREF.exit49, label %19

19:                                               ; preds = %Py_DECREF.exit51
  store ptr null, ptr %17, align 8, !tbaa !20
  %20 = load i32, ptr %18, align 8, !tbaa !21
  %.not.i48 = icmp sgt i32 %20, -1
  br i1 %.not.i48, label %21, label %Py_DECREF.exit49

21:                                               ; preds = %19
  %22 = add nsw i32 %20, -1
  store i32 %22, ptr %18, align 8, !tbaa !21
  %23 = icmp eq i32 %22, 0
  br i1 %23, label %24, label %Py_DECREF.exit49

24:                                               ; preds = %21
  tail call void @_Py_Dealloc(ptr noundef nonnull %18) #9
  br label %Py_DECREF.exit49

Py_DECREF.exit49:                                 ; preds = %24, %21, %19, %Py_DECREF.exit51
  %25 = getelementptr inbounds nuw i8, ptr %0, i64 112
  %26 = load ptr, ptr %25, align 8, !tbaa !20
  %.not38 = icmp eq ptr %26, null
  br i1 %.not38, label %Py_DECREF.exit47, label %27

27:                                               ; preds = %Py_DECREF.exit49
  store ptr null, ptr %25, align 8, !tbaa !20
  %28 = load i32, ptr %26, align 8, !tbaa !21
  %.not.i46 = icmp sgt i32 %28, -1
  br i1 %.not.i46, label %29, label %Py_DECREF.exit47

29:                                               ; preds = %27
  %30 = add nsw i32 %28, -1
  store i32 %30, ptr %26, align 8, !tbaa !21
  %31 = icmp eq i32 %30, 0
  br i1 %31, label %32, label %Py_DECREF.exit47

32:                                               ; preds = %29
  tail call void @_Py_Dealloc(ptr noundef nonnull %26) #9
  br label %Py_DECREF.exit47

Py_DECREF.exit47:                                 ; preds = %32, %29, %27, %Py_DECREF.exit49
  %33 = getelementptr inbounds nuw i8, ptr %0, i64 120
  %34 = load ptr, ptr %33, align 8, !tbaa !22
  %.not39 = icmp eq ptr %34, null
  br i1 %.not39, label %Py_DECREF.exit45, label %35

35:                                               ; preds = %Py_DECREF.exit47
  store ptr null, ptr %33, align 8, !tbaa !22
  %36 = load i32, ptr %34, align 8, !tbaa !21
  %.not.i44 = icmp sgt i32 %36, -1
  br i1 %.not.i44, label %37, label %Py_DECREF.exit45

37:                                               ; preds = %35
  %38 = add nsw i32 %36, -1
  store i32 %38, ptr %34, align 8, !tbaa !21
  %39 = icmp eq i32 %38, 0
  br i1 %39, label %40, label %Py_DECREF.exit45

40:                                               ; preds = %37
  tail call void @_Py_Dealloc(ptr noundef nonnull %34) #9
  br label %Py_DECREF.exit45

Py_DECREF.exit45:                                 ; preds = %40, %37, %35, %Py_DECREF.exit47
  %41 = getelementptr inbounds nuw i8, ptr %0, i64 128
  %42 = load ptr, ptr %41, align 8, !tbaa !20
  %.not40 = icmp eq ptr %42, null
  br i1 %.not40, label %Py_DECREF.exit43, label %43

43:                                               ; preds = %Py_DECREF.exit45
  store ptr null, ptr %41, align 8, !tbaa !20
  %44 = load i32, ptr %42, align 8, !tbaa !21
  %.not.i42 = icmp sgt i32 %44, -1
  br i1 %.not.i42, label %45, label %Py_DECREF.exit43

45:                                               ; preds = %43
  %46 = add nsw i32 %44, -1
  store i32 %46, ptr %42, align 8, !tbaa !21
  %47 = icmp eq i32 %46, 0
  br i1 %47, label %48, label %Py_DECREF.exit43

48:                                               ; preds = %45
  tail call void @_Py_Dealloc(ptr noundef nonnull %42) #9
  br label %Py_DECREF.exit43

Py_DECREF.exit43:                                 ; preds = %48, %45, %43, %Py_DECREF.exit45
  %49 = getelementptr inbounds nuw i8, ptr %0, i64 136
  %50 = load ptr, ptr %49, align 8, !tbaa !20
  %.not41 = icmp eq ptr %50, null
  br i1 %.not41, label %Py_DECREF.exit, label %51

51:                                               ; preds = %Py_DECREF.exit43
  store ptr null, ptr %49, align 8, !tbaa !20
  %52 = load i32, ptr %50, align 8, !tbaa !21
  %.not.i = icmp sgt i32 %52, -1
  br i1 %.not.i, label %53, label %Py_DECREF.exit

53:                                               ; preds = %51
  %54 = add nsw i32 %52, -1
  store i32 %54, ptr %50, align 8, !tbaa !21
  %55 = icmp eq i32 %54, 0
  br i1 %55, label %56, label %Py_DECREF.exit

56:                                               ; preds = %53
  tail call void @_Py_Dealloc(ptr noundef nonnull %50) #9
  br label %Py_DECREF.exit

Py_DECREF.exit:                                   ; preds = %56, %53, %51, %Py_DECREF.exit43
  %.not6.i = icmp eq ptr %.0.i, null
  br i1 %.not6.i, label %lru_cache_clear_list.exit, label %.lr.ph.i

.lr.ph.i:                                         ; preds = %Py_DECREF.exit, %Py_DECREF.exit.i
  %.07.i = phi ptr [ %58, %Py_DECREF.exit.i ], [ %.0.i, %Py_DECREF.exit ]
  %57 = getelementptr inbounds nuw i8, ptr %.07.i, i64 24
  %58 = load ptr, ptr %57, align 8, !tbaa !152
  %59 = load i32, ptr %.07.i, align 8, !tbaa !21
  %.not.i.i = icmp sgt i32 %59, -1
  br i1 %.not.i.i, label %60, label %Py_DECREF.exit.i

60:                                               ; preds = %.lr.ph.i
  %61 = add nsw i32 %59, -1
  store i32 %61, ptr %.07.i, align 8, !tbaa !21
  %62 = icmp eq i32 %61, 0
  br i1 %62, label %63, label %Py_DECREF.exit.i

63:                                               ; preds = %60
  tail call void @_Py_Dealloc(ptr noundef nonnull %.07.i) #9
  br label %Py_DECREF.exit.i

Py_DECREF.exit.i:                                 ; preds = %63, %60, %.lr.ph.i
  %.not.i57 = icmp eq ptr %58, null
  br i1 %.not.i57, label %lru_cache_clear_list.exit, label %.lr.ph.i, !llvm.loop !163

lru_cache_clear_list.exit:                        ; preds = %Py_DECREF.exit.i, %Py_DECREF.exit
  ret i32 0
}